; ModuleID = '63/631.c'
source_filename = "63/631.c"
target datalayout = "e-m:e-p270:32:32-p271:32:32-p272:64:64-i64:64-f80:128-n8:16:32:64-S128"
target triple = "x86_64-pc-linux-gnu"

@.str = private unnamed_addr constant [6 x i8] c"%d %d\00", align 1
@.str.1 = private unnamed_addr constant [3 x i8] c"%d\00", align 1
@.str.2 = private unnamed_addr constant [4 x i8] c"%d\0A\00", align 1
@.str.3 = private unnamed_addr constant [4 x i8] c"%d \00", align 1

; Function Attrs: noinline nounwind uwtable
define dso_local i32 @main() #0 {
  %1 = alloca i32, align 4
  %2 = alloca i32, align 4
  %3 = alloca i32, align 4
  %4 = alloca i32, align 4
  %5 = alloca i32, align 4
  %6 = alloca i32, align 4
  %7 = alloca i32, align 4
  %8 = alloca i32, align 4
  %9 = alloca i32**, align 8
  %10 = alloca i32**, align 8
  %11 = alloca i32**, align 8
  store i32 0, i32* %1, align 4
  %12 = call i32 (i8*, ...) @__isoc99_scanf(i8* getelementptr inbounds ([6 x i8], [6 x i8]* @.str, i64 0, i64 0), i32* %2, i32* %3)
  %13 = load i32, i32* %2, align 4
  %14 = sext i32 %13 to i64
  %15 = mul i64 %14, 8
  %16 = call noalias i8* @malloc(i64 %15) #3
  %17 = bitcast i8* %16 to i32**
  store i32** %17, i32*** %9, align 8
  store i32 0, i32* %6, align 4
  br label %18

18:                                               ; preds = %32, %0
  %19 = load i32, i32* %6, align 4
  %20 = load i32, i32* %2, align 4
  %21 = icmp slt i32 %19, %20
  br i1 %21, label %22, label %35

22:                                               ; preds = %18
  %23 = load i32, i32* %3, align 4
  %24 = sext i32 %23 to i64
  %25 = mul i64 %24, 4
  %26 = call noalias i8* @malloc(i64 %25) #3
  %27 = bitcast i8* %26 to i32*
  %28 = load i32**, i32*** %9, align 8
  %29 = load i32, i32* %6, align 4
  %30 = sext i32 %29 to i64
  %31 = getelementptr inbounds i32*, i32** %28, i64 %30
  store i32* %27, i32** %31, align 8
  br label %32

32:                                               ; preds = %22
  %33 = load i32, i32* %6, align 4
  %34 = add nsw i32 %33, 1
  store i32 %34, i32* %6, align 4
  br label %18

35:                                               ; preds = %18
  store i32 0, i32* %6, align 4
  br label %36

36:                                               ; preds = %59, %35
  %37 = load i32, i32* %6, align 4
  %38 = load i32, i32* %2, align 4
  %39 = icmp slt i32 %37, %38
  br i1 %39, label %40, label %62

40:                                               ; preds = %36
  store i32 0, i32* %7, align 4
  br label %41

41:                                               ; preds = %55, %40
  %42 = load i32, i32* %7, align 4
  %43 = load i32, i32* %3, align 4
  %44 = icmp slt i32 %42, %43
  br i1 %44, label %45, label %58

45:                                               ; preds = %41
  %46 = load i32**, i32*** %9, align 8
  %47 = load i32, i32* %6, align 4
  %48 = sext i32 %47 to i64
  %49 = getelementptr inbounds i32*, i32** %46, i64 %48
  %50 = load i32*, i32** %49, align 8
  %51 = load i32, i32* %7, align 4
  %52 = sext i32 %51 to i64
  %53 = getelementptr inbounds i32, i32* %50, i64 %52
  %54 = call i32 (i8*, ...) @__isoc99_scanf(i8* getelementptr inbounds ([3 x i8], [3 x i8]* @.str.1, i64 0, i64 0), i32* %53)
  br label %55

55:                                               ; preds = %45
  %56 = load i32, i32* %7, align 4
  %57 = add nsw i32 %56, 1
  store i32 %57, i32* %7, align 4
  br label %41

58:                                               ; preds = %41
  br label %59

59:                                               ; preds = %58
  %60 = load i32, i32* %6, align 4
  %61 = add nsw i32 %60, 1
  store i32 %61, i32* %6, align 4
  br label %36

62:                                               ; preds = %36
  %63 = call i32 (i8*, ...) @__isoc99_scanf(i8* getelementptr inbounds ([6 x i8], [6 x i8]* @.str, i64 0, i64 0), i32* %4, i32* %5)
  %64 = load i32, i32* %4, align 4
  %65 = sext i32 %64 to i64
  %66 = mul i64 %65, 8
  %67 = call noalias i8* @malloc(i64 %66) #3
  %68 = bitcast i8* %67 to i32**
  store i32** %68, i32*** %10, align 8
  store i32 0, i32* %6, align 4
  br label %69

69:                                               ; preds = %83, %62
  %70 = load i32, i32* %6, align 4
  %71 = load i32, i32* %4, align 4
  %72 = icmp slt i32 %70, %71
  br i1 %72, label %73, label %86

73:                                               ; preds = %69
  %74 = load i32, i32* %5, align 4
  %75 = sext i32 %74 to i64
  %76 = mul i64 %75, 4
  %77 = call noalias i8* @malloc(i64 %76) #3
  %78 = bitcast i8* %77 to i32*
  %79 = load i32**, i32*** %10, align 8
  %80 = load i32, i32* %6, align 4
  %81 = sext i32 %80 to i64
  %82 = getelementptr inbounds i32*, i32** %79, i64 %81
  store i32* %78, i32** %82, align 8
  br label %83

83:                                               ; preds = %73
  %84 = load i32, i32* %6, align 4
  %85 = add nsw i32 %84, 1
  store i32 %85, i32* %6, align 4
  br label %69

86:                                               ; preds = %69
  store i32 0, i32* %6, align 4
  br label %87

87:                                               ; preds = %110, %86
  %88 = load i32, i32* %6, align 4
  %89 = load i32, i32* %4, align 4
  %90 = icmp slt i32 %88, %89
  br i1 %90, label %91, label %113

91:                                               ; preds = %87
  store i32 0, i32* %7, align 4
  br label %92

92:                                               ; preds = %106, %91
  %93 = load i32, i32* %7, align 4
  %94 = load i32, i32* %5, align 4
  %95 = icmp slt i32 %93, %94
  br i1 %95, label %96, label %109

96:                                               ; preds = %92
  %97 = load i32**, i32*** %10, align 8
  %98 = load i32, i32* %6, align 4
  %99 = sext i32 %98 to i64
  %100 = getelementptr inbounds i32*, i32** %97, i64 %99
  %101 = load i32*, i32** %100, align 8
  %102 = load i32, i32* %7, align 4
  %103 = sext i32 %102 to i64
  %104 = getelementptr inbounds i32, i32* %101, i64 %103
  %105 = call i32 (i8*, ...) @__isoc99_scanf(i8* getelementptr inbounds ([3 x i8], [3 x i8]* @.str.1, i64 0, i64 0), i32* %104)
  br label %106

106:                                              ; preds = %96
  %107 = load i32, i32* %7, align 4
  %108 = add nsw i32 %107, 1
  store i32 %108, i32* %7, align 4
  br label %92

109:                                              ; preds = %92
  br label %110

110:                                              ; preds = %109
  %111 = load i32, i32* %6, align 4
  %112 = add nsw i32 %111, 1
  store i32 %112, i32* %6, align 4
  br label %87

113:                                              ; preds = %87
  %114 = load i32, i32* %2, align 4
  %115 = sext i32 %114 to i64
  %116 = mul i64 %115, 8
  %117 = call noalias i8* @malloc(i64 %116) #3
  %118 = bitcast i8* %117 to i32**
  store i32** %118, i32*** %11, align 8
  store i32 0, i32* %6, align 4
  br label %119

119:                                              ; preds = %133, %113
  %120 = load i32, i32* %6, align 4
  %121 = load i32, i32* %2, align 4
  %122 = icmp slt i32 %120, %121
  br i1 %122, label %123, label %136

123:                                              ; preds = %119
  %124 = load i32, i32* %5, align 4
  %125 = sext i32 %124 to i64
  %126 = mul i64 %125, 4
  %127 = call noalias i8* @malloc(i64 %126) #3
  %128 = bitcast i8* %127 to i32*
  %129 = load i32**, i32*** %11, align 8
  %130 = load i32, i32* %6, align 4
  %131 = sext i32 %130 to i64
  %132 = getelementptr inbounds i32*, i32** %129, i64 %131
  store i32* %128, i32** %132, align 8
  br label %133

133:                                              ; preds = %123
  %134 = load i32, i32* %6, align 4
  %135 = add nsw i32 %134, 1
  store i32 %135, i32* %6, align 4
  br label %119

136:                                              ; preds = %119
  store i32 0, i32* %6, align 4
  br label %137

137:                                              ; preds = %232, %136
  %138 = load i32, i32* %6, align 4
  %139 = load i32, i32* %2, align 4
  %140 = icmp slt i32 %138, %139
  br i1 %140, label %141, label %235

141:                                              ; preds = %137
  store i32 0, i32* %7, align 4
  br label %142

142:                                              ; preds = %228, %141
  %143 = load i32, i32* %7, align 4
  %144 = load i32, i32* %5, align 4
  %145 = icmp slt i32 %143, %144
  br i1 %145, label %146, label %231

146:                                              ; preds = %142
  %147 = load i32**, i32*** %11, align 8
  %148 = load i32, i32* %6, align 4
  %149 = sext i32 %148 to i64
  %150 = getelementptr inbounds i32*, i32** %147, i64 %149
  %151 = load i32*, i32** %150, align 8
  %152 = load i32, i32* %7, align 4
  %153 = sext i32 %152 to i64
  %154 = getelementptr inbounds i32, i32* %151, i64 %153
  store i32 0, i32* %154, align 4
  store i32 0, i32* %8, align 4
  br label %155

155:                                              ; preds = %197, %146
  %156 = load i32, i32* %8, align 4
  %157 = load i32, i32* %3, align 4
  %158 = icmp slt i32 %156, %157
  br i1 %158, label %159, label %200

159:                                              ; preds = %155
  %160 = load i32**, i32*** %11, align 8
  %161 = load i32, i32* %6, align 4
  %162 = sext i32 %161 to i64
  %163 = getelementptr inbounds i32*, i32** %160, i64 %162
  %164 = load i32*, i32** %163, align 8
  %165 = load i32, i32* %7, align 4
  %166 = sext i32 %165 to i64
  %167 = getelementptr inbounds i32, i32* %164, i64 %166
  %168 = load i32, i32* %167, align 4
  %169 = load i32**, i32*** %9, align 8
  %170 = load i32, i32* %6, align 4
  %171 = sext i32 %170 to i64
  %172 = getelementptr inbounds i32*, i32** %169, i64 %171
  %173 = load i32*, i32** %172, align 8
  %174 = load i32, i32* %8, align 4
  %175 = sext i32 %174 to i64
  %176 = getelementptr inbounds i32, i32* %173, i64 %175
  %177 = load i32, i32* %176, align 4
  %178 = load i32**, i32*** %10, align 8
  %179 = load i32, i32* %8, align 4
  %180 = sext i32 %179 to i64
  %181 = getelementptr inbounds i32*, i32** %178, i64 %180
  %182 = load i32*, i32** %181, align 8
  %183 = load i32, i32* %7, align 4
  %184 = sext i32 %183 to i64
  %185 = getelementptr inbounds i32, i32* %182, i64 %184
  %186 = load i32, i32* %185, align 4
  %187 = mul nsw i32 %177, %186
  %188 = add nsw i32 %168, %187
  %189 = load i32**, i32*** %11, align 8
  %190 = load i32, i32* %6, align 4
  %191 = sext i32 %190 to i64
  %192 = getelementptr inbounds i32*, i32** %189, i64 %191
  %193 = load i32*, i32** %192, align 8
  %194 = load i32, i32* %7, align 4
  %195 = sext i32 %194 to i64
  %196 = getelementptr inbounds i32, i32* %193, i64 %195
  store i32 %188, i32* %196, align 4
  br label %197

197:                                              ; preds = %159
  %198 = load i32, i32* %8, align 4
  %199 = add nsw i32 %198, 1
  store i32 %199, i32* %8, align 4
  br label %155

200:                                              ; preds = %155
  %201 = load i32, i32* %7, align 4
  %202 = load i32, i32* %5, align 4
  %203 = sub nsw i32 %202, 1
  %204 = icmp eq i32 %201, %203
  br i1 %204, label %205, label %216

205:                                              ; preds = %200
  %206 = load i32**, i32*** %11, align 8
  %207 = load i32, i32* %6, align 4
  %208 = sext i32 %207 to i64
  %209 = getelementptr inbounds i32*, i32** %206, i64 %208
  %210 = load i32*, i32** %209, align 8
  %211 = load i32, i32* %7, align 4
  %212 = sext i32 %211 to i64
  %213 = getelementptr inbounds i32, i32* %210, i64 %212
  %214 = load i32, i32* %213, align 4
  %215 = call i32 (i8*, ...) @printf(i8* getelementptr inbounds ([4 x i8], [4 x i8]* @.str.2, i64 0, i64 0), i32 %214)
  br label %227

216:                                              ; preds = %200
  %217 = load i32**, i32*** %11, align 8
  %218 = load i32, i32* %6, align 4
  %219 = sext i32 %218 to i64
  %220 = getelementptr inbounds i32*, i32** %217, i64 %219
  %221 = load i32*, i32** %220, align 8
  %222 = load i32, i32* %7, align 4
  %223 = sext i32 %222 to i64
  %224 = getelementptr inbounds i32, i32* %221, i64 %223
  %225 = load i32, i32* %224, align 4
  %226 = call i32 (i8*, ...) @printf(i8* getelementptr inbounds ([4 x i8], [4 x i8]* @.str.3, i64 0, i64 0), i32 %225)
  br label %227

227:                                              ; preds = %216, %205
  br label %228

228:                                              ; preds = %227
  %229 = load i32, i32* %7, align 4
  %230 = add nsw i32 %229, 1
  store i32 %230, i32* %7, align 4
  br label %142

231:                                              ; preds = %142
  br label %232

232:                                              ; preds = %231
  %233 = load i32, i32* %6, align 4
  %234 = add nsw i32 %233, 1
  store i32 %234, i32* %6, align 4
  br label %137

235:                                              ; preds = %137
  ret i32 0
}

declare dso_local i32 @__isoc99_scanf(i8*, ...) #1

; Function Attrs: nounwind
declare dso_local noalias i8* @malloc(i64) #2

declare dso_local i32 @printf(i8*, ...) #1


!llvm.module.flags = !{!0}
!llvm.ident = !{!1}

!0 = !{i32 1, !"wchar_size", i32 4}
!1 = !{!"clang version 10.0.0-4ubuntu1 "}
